target datalayout = "e-m:e-p270:32:32-p271:32:32-p272:64:64-i64:64-i128:128-f80:128-n8:16:32:64-S128"
target triple = "x86_64-pc-linux-gnu"

%"class.std::__cxx11::basic_string" = type { %"struct.std::__cxx11::basic_string<char>::_Alloc_hider", i64, %union.anon }
%"struct.std::__cxx11::basic_string<char>::_Alloc_hider" = type { ptr }
%union.anon = type { i64, [8 x i8] }
%"class.Imf_3_4::IStream" = type { ptr, %"class.std::__cxx11::basic_string" }
%class.MemoryMappedIStream = type { %"class.Imf_3_4::IStream", ptr, i64, i64 }

; Function Attrs: mustprogress nounwind uwtable
define dso_local void @_ZN19MemoryMappedIStreamD2Ev(ptr noundef nonnull align 8 dereferenceable(64) %0) unnamed_addr #5 align 2 {
  %2 = alloca ptr, align 8
  store ptr %0, ptr %2, align 8, !tbaa !31
  %3 = load ptr, ptr %2, align 8
  store ptr getelementptr inbounds inrange(-16, 88) ({ [13 x ptr] }, ptr @_ZTV19MemoryMappedIStream, i32 0, i32 0, i32 2), ptr %3, align 8, !tbaa !33
  %4 = getelementptr inbounds nuw %class.MemoryMappedIStream, ptr %3, i32 0, i32 1
  %5 = load ptr, ptr %4, align 8, !tbaa !35
  %6 = getelementptr inbounds nuw %class.MemoryMappedIStream, ptr %3, i32 0, i32 2
  %7 = load i64, ptr %6, align 8, !tbaa !37
  %8 = call i32 @munmap(ptr noundef %5, i64 noundef %7) #3
  call void @_ZN7Imf_3_47IStreamD2Ev(ptr noundef nonnull align 8 dereferenceable(40) %3) #3
  ret void
}