; Function Attrs: mustprogress nounwind uwtable
define dso_local void @_ZN19MemoryMappedIStreamD2Ev(ptr noundef nonnull align 8 dereferenceable(64) initializes((0, 8)) %0) unnamed_addr #4 align 2 {
  store ptr getelementptr inbounds nuw inrange(-16, 88) (i8, ptr @_ZTV19MemoryMappedIStream, i64 16), ptr %0, align 8, !tbaa !15
  %2 = getelementptr inbounds nuw i8, ptr %0, i64 40
  %3 = load ptr, ptr %2, align 8, !tbaa !17
  %4 = getelementptr inbounds nuw i8, ptr %0, i64 48
  %5 = load i64, ptr %4, align 8, !tbaa !19
  %6 = tail call i32 @munmap(ptr noundef %3, i64 noundef %5) #36
  tail call void @_ZN7Imf_3_47IStreamD2Ev(ptr noundef nonnull align 8 dereferenceable(40) %0) #36
  ret void
}